target datalayout = "e-m:e-p270:32:32-p271:32:32-p272:64:64-i64:64-i128:128-f80:128-n8:16:32:64-S128"
target triple = "x86_64-pc-linux-gnu"

%struct.rule = type { i32, i32, i32, i32, i32 }

; Function Attrs: nounwind uwtable
define internal ptr @getnum(ptr noundef %0, ptr noundef %1, i32 noundef %2, i32 noundef %3) #0 {
  %5 = alloca ptr, align 8
  %6 = alloca ptr, align 8
  %7 = alloca ptr, align 8
  %8 = alloca i32, align 4
  %9 = alloca i32, align 4
  %10 = alloca i8, align 1
  %11 = alloca i32, align 4
  %12 = alloca i32, align 4
  store ptr %0, ptr %6, align 8
  store ptr %1, ptr %7, align 8
  store i32 %2, ptr %8, align 4
  store i32 %3, ptr %9, align 4
  call void @llvm.lifetime.start.p0(i64 1, ptr %10) #8
  call void @llvm.lifetime.start.p0(i64 4, ptr %11) #8
  %13 = load ptr, ptr %6, align 8
  %14 = icmp eq ptr %13, null
  br i1 %14, label %21, label %15

15:                                               ; preds = %4
  %16 = load ptr, ptr %6, align 8
  %17 = load i8, ptr %16, align 1
  store i8 %17, ptr %10, align 1
  %18 = sext i8 %17 to i32
  %19 = sub i32 %18, 48
  %20 = icmp ule i32 %19, 9
  br i1 %20, label %22, label %21

21:                                               ; preds = %15, %4
  store ptr null, ptr %5, align 8
  store i32 1, ptr %12, align 4
  br label %52

22:                                               ; preds = %15
  store i32 0, ptr %11, align 4
  br label %23

23:                                               ; preds = %38, %22
  %24 = load i32, ptr %11, align 4
  %25 = mul i32 %24, 10
  %26 = load i8, ptr %10, align 1
  %27 = sext i8 %26 to i32
  %28 = sub i32 %27, 48
  %29 = add i32 %25, %28
  store i32 %29, ptr %11, align 4
  %30 = load i32, ptr %11, align 4
  %31 = load i32, ptr %9, align 4
  %32 = icmp sgt i32 %30, %31
  br i1 %32, label %33, label %34

33:                                               ; preds = %23
  store ptr null, ptr %5, align 8
  store i32 1, ptr %12, align 4
  br label %52

34:                                               ; preds = %23
  %35 = load ptr, ptr %6, align 8
  %36 = getelementptr inbounds nuw i8, ptr %35, i32 1
  store ptr %36, ptr %6, align 8
  %37 = load i8, ptr %36, align 1
  store i8 %37, ptr %10, align 1
  br label %38

38:                                               ; preds = %34
  %39 = load i8, ptr %10, align 1
  %40 = sext i8 %39 to i32
  %41 = sub i32 %40, 48
  %42 = icmp ule i32 %41, 9
  br i1 %42, label %23, label %43, !llvm.loop !50

43:                                               ; preds = %38
  %44 = load i32, ptr %11, align 4
  %45 = load i32, ptr %8, align 4
  %46 = icmp slt i32 %44, %45
  br i1 %46, label %47, label %48

47:                                               ; preds = %43
  store ptr null, ptr %5, align 8
  store i32 1, ptr %12, align 4
  br label %52

48:                                               ; preds = %43
  %49 = load i32, ptr %11, align 4
  %50 = load ptr, ptr %7, align 8
  store i32 %49, ptr %50, align 4
  %51 = load ptr, ptr %6, align 8
  store ptr %51, ptr %5, align 8
  store i32 1, ptr %12, align 4
  br label %52

52:                                               ; preds = %48, %47, %33, %21
  call void @llvm.lifetime.end.p0(i64 4, ptr %11) #8
  call void @llvm.lifetime.end.p0(i64 1, ptr %10) #8
  %53 = load ptr, ptr %5, align 8
  ret ptr %53
}

; Function Attrs: nounwind uwtable
define internal ptr @getrule(ptr noundef %0, ptr noundef %1) #0 {
  %3 = alloca ptr, align 8
  %4 = alloca ptr, align 8
  %5 = alloca ptr, align 8
  store ptr %0, ptr %4, align 8
  store ptr %1, ptr %5, align 8
  %6 = load ptr, ptr %4, align 8
  %7 = load i8, ptr %6, align 1
  %8 = sext i8 %7 to i32
  %9 = icmp eq i32 %8, 74
  br i1 %9, label %10, label %19

10:                                               ; preds = %2
  %11 = load ptr, ptr %5, align 8
  %12 = getelementptr inbounds nuw %struct.rule, ptr %11, i32 0, i32 0
  store i32 0, ptr %12, align 4
  %13 = load ptr, ptr %4, align 8
  %14 = getelementptr inbounds nuw i8, ptr %13, i32 1
  store ptr %14, ptr %4, align 8
  %15 = load ptr, ptr %4, align 8
  %16 = load ptr, ptr %5, align 8
  %17 = getelementptr inbounds nuw %struct.rule, ptr %16, i32 0, i32 1
  %18 = call ptr @getnum(ptr noundef %15, ptr noundef %17, i32 noundef 1, i32 noundef 365)
  store ptr %18, ptr %4, align 8
  br label %79

19:                                               ; preds = %2
  %20 = load ptr, ptr %4, align 8
  %21 = load i8, ptr %20, align 1
  %22 = sext i8 %21 to i32
  %23 = icmp eq i32 %22, 77
  br i1 %23, label %24, label %63

24:                                               ; preds = %19
  %25 = load ptr, ptr %5, align 8
  %26 = getelementptr inbounds nuw %struct.rule, ptr %25, i32 0, i32 0
  store i32 2, ptr %26, align 4
  %27 = load ptr, ptr %4, align 8
  %28 = getelementptr inbounds nuw i8, ptr %27, i32 1
  store ptr %28, ptr %4, align 8
  %29 = load ptr, ptr %4, align 8
  %30 = load ptr, ptr %5, align 8
  %31 = getelementptr inbounds nuw %struct.rule, ptr %30, i32 0, i32 3
  %32 = call ptr @getnum(ptr noundef %29, ptr noundef %31, i32 noundef 1, i32 noundef 12)
  store ptr %32, ptr %4, align 8
  %33 = load ptr, ptr %4, align 8
  %34 = icmp eq ptr %33, null
  br i1 %34, label %35, label %36

35:                                               ; preds = %24
  store ptr null, ptr %3, align 8
  br label %100

36:                                               ; preds = %24
  %37 = load ptr, ptr %4, align 8
  %38 = getelementptr inbounds nuw i8, ptr %37, i32 1
  store ptr %38, ptr %4, align 8
  %39 = load i8, ptr %37, align 1
  %40 = sext i8 %39 to i32
  %41 = icmp ne i32 %40, 46
  br i1 %41, label %42, label %43

42:                                               ; preds = %36
  store ptr null, ptr %3, align 8
  br label %100

43:                                               ; preds = %36
  %44 = load ptr, ptr %4, align 8
  %45 = load ptr, ptr %5, align 8
  %46 = getelementptr inbounds nuw %struct.rule, ptr %45, i32 0, i32 2
  %47 = call ptr @getnum(ptr noundef %44, ptr noundef %46, i32 noundef 1, i32 noundef 5)
  store ptr %47, ptr %4, align 8
  %48 = load ptr, ptr %4, align 8
  %49 = icmp eq ptr %48, null
  br i1 %49, label %50, label %51

50:                                               ; preds = %43
  store ptr null, ptr %3, align 8
  br label %100

51:                                               ; preds = %43
  %52 = load ptr, ptr %4, align 8
  %53 = getelementptr inbounds nuw i8, ptr %52, i32 1
  store ptr %53, ptr %4, align 8
  %54 = load i8, ptr %52, align 1
  %55 = sext i8 %54 to i32
  %56 = icmp ne i32 %55, 46
  br i1 %56, label %57, label %58

57:                                               ; preds = %51
  store ptr null, ptr %3, align 8
  br label %100

58:                                               ; preds = %51
  %59 = load ptr, ptr %4, align 8
  %60 = load ptr, ptr %5, align 8
  %61 = getelementptr inbounds nuw %struct.rule, ptr %60, i32 0, i32 1
  %62 = call ptr @getnum(ptr noundef %59, ptr noundef %61, i32 noundef 0, i32 noundef 6)
  store ptr %62, ptr %4, align 8
  br label %78

63:                                               ; preds = %19
  %64 = load ptr, ptr %4, align 8
  %65 = load i8, ptr %64, align 1
  %66 = sext i8 %65 to i32
  %67 = sub i32 %66, 48
  %68 = icmp ule i32 %67, 9
  br i1 %68, label %69, label %76

69:                                               ; preds = %63
  %70 = load ptr, ptr %5, align 8
  %71 = getelementptr inbounds nuw %struct.rule, ptr %70, i32 0, i32 0
  store i32 1, ptr %71, align 4
  %72 = load ptr, ptr %4, align 8
  %73 = load ptr, ptr %5, align 8
  %74 = getelementptr inbounds nuw %struct.rule, ptr %73, i32 0, i32 1
  %75 = call ptr @getnum(ptr noundef %72, ptr noundef %74, i32 noundef 0, i32 noundef 365)
  store ptr %75, ptr %4, align 8
  br label %77

76:                                               ; preds = %63
  store ptr null, ptr %3, align 8
  br label %100

77:                                               ; preds = %69
  br label %78

78:                                               ; preds = %77, %58
  br label %79

79:                                               ; preds = %78, %10
  %80 = load ptr, ptr %4, align 8
  %81 = icmp eq ptr %80, null
  br i1 %81, label %82, label %83

82:                                               ; preds = %79
  store ptr null, ptr %3, align 8
  br label %100

83:                                               ; preds = %79
  %84 = load ptr, ptr %4, align 8
  %85 = load i8, ptr %84, align 1
  %86 = sext i8 %85 to i32
  %87 = icmp eq i32 %86, 47
  br i1 %87, label %88, label %95

88:                                               ; preds = %83
  %89 = load ptr, ptr %4, align 8
  %90 = getelementptr inbounds nuw i8, ptr %89, i32 1
  store ptr %90, ptr %4, align 8
  %91 = load ptr, ptr %4, align 8
  %92 = load ptr, ptr %5, align 8
  %93 = getelementptr inbounds nuw %struct.rule, ptr %92, i32 0, i32 4
  %94 = call ptr @getoffset(ptr noundef %91, ptr noundef %93)
  store ptr %94, ptr %4, align 8
  br label %98

95:                                               ; preds = %83
  %96 = load ptr, ptr %5, align 8
  %97 = getelementptr inbounds nuw %struct.rule, ptr %96, i32 0, i32 4
  store i32 7200, ptr %97, align 4
  br label %98

98:                                               ; preds = %95, %88
  %99 = load ptr, ptr %4, align 8
  store ptr %99, ptr %3, align 8
  br label %100

100:                                              ; preds = %98, %82, %76, %57, %50, %42, %35
  %101 = load ptr, ptr %3, align 8
  ret ptr %101
}