; Function Attrs: nofree norecurse nosync nounwind memory(argmem: readwrite) uwtable
define internal fastcc noundef ptr @getrule(ptr noundef captures(ret: address, provenance) %0, ptr noundef nonnull writeonly captures(none) %1) unnamed_addr #7 {
  %3 = load i8, ptr %0, align 1
  switch i8 %3, label %90 [
    i8 74, label %4
    i8 77, label %25
  ]

4:                                                ; preds = %2
  store i32 0, ptr %1, align 4
  %5 = getelementptr inbounds nuw i8, ptr %0, i64 1
  %6 = getelementptr inbounds nuw i8, ptr %1, i64 4
  %7 = load i8, ptr %5, align 1
  %8 = sext i8 %7 to i32
  %9 = add nsw i32 %8, -48
  %10 = icmp ult i32 %9, 10
  br i1 %10, label %.preheader.i, label %getnum.exit40.thread

.preheader.i:                                     ; preds = %4, %16
  %.015.i = phi ptr [ %17, %16 ], [ %5, %4 ]
  %.013.i = phi i8 [ %18, %16 ], [ %7, %4 ]
  %.0.i = phi i32 [ %14, %16 ], [ 0, %4 ]
  %11 = mul i32 %.0.i, 10
  %12 = sext i8 %.013.i to i32
  %13 = add nsw i32 %12, -48
  %14 = add i32 %13, %11
  %15 = icmp sgt i32 %14, 365
  br i1 %15, label %getnum.exit40.thread, label %16

16:                                               ; preds = %.preheader.i
  %17 = getelementptr inbounds nuw i8, ptr %.015.i, i64 1
  %18 = load i8, ptr %17, align 1
  %19 = sext i8 %18 to i32
  %20 = add nsw i32 %19, -48
  %21 = icmp ult i32 %20, 10
  br i1 %21, label %.preheader.i, label %22, !llvm.loop !35

22:                                               ; preds = %16
  %23 = icmp slt i32 %14, 1
  br i1 %23, label %getnum.exit40.thread, label %24

24:                                               ; preds = %22
  store i32 %14, ptr %6, align 4
  br label %getnum.exit

25:                                               ; preds = %2
  store i32 2, ptr %1, align 4
  %26 = getelementptr inbounds nuw i8, ptr %0, i64 1
  %27 = getelementptr inbounds nuw i8, ptr %1, i64 12
  %28 = load i8, ptr %26, align 1
  %29 = sext i8 %28 to i32
  %30 = add nsw i32 %29, -48
  %31 = icmp ult i32 %30, 10
  br i1 %31, label %.preheader.i36, label %getnum.exit40.thread

.preheader.i36:                                   ; preds = %25, %37
  %.015.i37 = phi ptr [ %38, %37 ], [ %26, %25 ]
  %.013.i38 = phi i8 [ %39, %37 ], [ %28, %25 ]
  %.0.i39 = phi i32 [ %35, %37 ], [ 0, %25 ]
  %32 = mul i32 %.0.i39, 10
  %33 = sext i8 %.013.i38 to i32
  %34 = add nsw i32 %33, -48
  %35 = add i32 %34, %32
  %36 = icmp sgt i32 %35, 12
  br i1 %36, label %getnum.exit40.thread, label %37

37:                                               ; preds = %.preheader.i36
  %38 = getelementptr inbounds nuw i8, ptr %.015.i37, i64 1
  %39 = load i8, ptr %38, align 1
  %40 = sext i8 %39 to i32
  %41 = add nsw i32 %40, -48
  %42 = icmp ult i32 %41, 10
  br i1 %42, label %.preheader.i36, label %43, !llvm.loop !35

43:                                               ; preds = %37
  %44 = icmp slt i32 %35, 1
  br i1 %44, label %getnum.exit40.thread, label %45

45:                                               ; preds = %43
  store i32 %35, ptr %27, align 4
  %46 = load i8, ptr %38, align 1
  %.not = icmp eq i8 %46, 46
  br i1 %.not, label %47, label %getnum.exit40.thread

47:                                               ; preds = %45
  %48 = getelementptr inbounds nuw i8, ptr %.015.i37, i64 2
  %49 = getelementptr inbounds nuw i8, ptr %1, i64 8
  %50 = load i8, ptr %48, align 1
  %51 = sext i8 %50 to i32
  %52 = add nsw i32 %51, -48
  %53 = icmp ult i32 %52, 10
  br i1 %53, label %.preheader.i42, label %getnum.exit40.thread

.preheader.i42:                                   ; preds = %47, %59
  %.015.i43 = phi ptr [ %60, %59 ], [ %48, %47 ]
  %.013.i44 = phi i8 [ %61, %59 ], [ %50, %47 ]
  %.0.i45 = phi i32 [ %57, %59 ], [ 0, %47 ]
  %54 = mul i32 %.0.i45, 10
  %55 = sext i8 %.013.i44 to i32
  %56 = add nsw i32 %55, -48
  %57 = add i32 %56, %54
  %58 = icmp sgt i32 %57, 5
  br i1 %58, label %getnum.exit40.thread, label %59

59:                                               ; preds = %.preheader.i42
  %60 = getelementptr inbounds nuw i8, ptr %.015.i43, i64 1
  %61 = load i8, ptr %60, align 1
  %62 = sext i8 %61 to i32
  %63 = add nsw i32 %62, -48
  %64 = icmp ult i32 %63, 10
  br i1 %64, label %.preheader.i42, label %65, !llvm.loop !35

65:                                               ; preds = %59
  %66 = icmp slt i32 %57, 1
  br i1 %66, label %getnum.exit40.thread, label %67

67:                                               ; preds = %65
  store i32 %57, ptr %49, align 4
  %68 = load i8, ptr %60, align 1
  %.not34 = icmp eq i8 %68, 46
  br i1 %.not34, label %69, label %getnum.exit40.thread

69:                                               ; preds = %67
  %70 = getelementptr inbounds nuw i8, ptr %.015.i43, i64 2
  %71 = getelementptr inbounds nuw i8, ptr %1, i64 4
  %72 = load i8, ptr %70, align 1
  %73 = sext i8 %72 to i32
  %74 = add nsw i32 %73, -48
  %75 = icmp ult i32 %74, 10
  br i1 %75, label %.preheader.i48, label %getnum.exit40.thread

.preheader.i48:                                   ; preds = %69, %81
  %.015.i49 = phi ptr [ %82, %81 ], [ %70, %69 ]
  %.013.i50 = phi i8 [ %83, %81 ], [ %72, %69 ]
  %.0.i51 = phi i32 [ %79, %81 ], [ 0, %69 ]
  %76 = mul i32 %.0.i51, 10
  %77 = sext i8 %.013.i50 to i32
  %78 = add nsw i32 %77, -48
  %79 = add i32 %78, %76
  %80 = icmp sgt i32 %79, 6
  br i1 %80, label %getnum.exit40.thread, label %81

81:                                               ; preds = %.preheader.i48
  %82 = getelementptr inbounds nuw i8, ptr %.015.i49, i64 1
  %83 = load i8, ptr %82, align 1
  %84 = sext i8 %83 to i32
  %85 = add nsw i32 %84, -48
  %86 = icmp ult i32 %85, 10
  br i1 %86, label %.preheader.i48, label %87, !llvm.loop !35

87:                                               ; preds = %81
  %88 = icmp slt i32 %79, 0
  br i1 %88, label %getnum.exit40.thread, label %89

89:                                               ; preds = %87
  store i32 %79, ptr %71, align 4
  br label %getnum.exit

90:                                               ; preds = %2
  %91 = sext i8 %3 to i32
  %92 = add nsw i32 %91, -48
  %93 = icmp ult i32 %92, 10
  br i1 %93, label %94, label %getnum.exit40.thread

94:                                               ; preds = %90
  store i32 1, ptr %1, align 4
  %95 = getelementptr inbounds nuw i8, ptr %1, i64 4
  %96 = load i8, ptr %0, align 1
  %97 = sext i8 %96 to i32
  %98 = add nsw i32 %97, -48
  %99 = icmp ult i32 %98, 10
  br i1 %99, label %.preheader.i54, label %getnum.exit40.thread

.preheader.i54:                                   ; preds = %94, %105
  %.015.i55 = phi ptr [ %106, %105 ], [ %0, %94 ]
  %.013.i56 = phi i8 [ %107, %105 ], [ %96, %94 ]
  %.0.i57 = phi i32 [ %103, %105 ], [ 0, %94 ]
  %100 = mul i32 %.0.i57, 10
  %101 = sext i8 %.013.i56 to i32
  %102 = add nsw i32 %101, -48
  %103 = add i32 %102, %100
  %104 = icmp sgt i32 %103, 365
  br i1 %104, label %getnum.exit40.thread, label %105

105:                                              ; preds = %.preheader.i54
  %106 = getelementptr inbounds nuw i8, ptr %.015.i55, i64 1
  %107 = load i8, ptr %106, align 1
  %108 = sext i8 %107 to i32
  %109 = add nsw i32 %108, -48
  %110 = icmp ult i32 %109, 10
  br i1 %110, label %.preheader.i54, label %111, !llvm.loop !35

111:                                              ; preds = %105
  %112 = icmp slt i32 %103, 0
  br i1 %112, label %getnum.exit40.thread, label %113

113:                                              ; preds = %111
  store i32 %103, ptr %95, align 4
  br label %getnum.exit

getnum.exit:                                      ; preds = %24, %89, %113
  %.030 = phi ptr [ %17, %24 ], [ %82, %89 ], [ %106, %113 ]
  %114 = load i8, ptr %.030, align 1
  %115 = icmp eq i8 %114, 47
  br i1 %115, label %116, label %120

116:                                              ; preds = %getnum.exit
  %117 = getelementptr inbounds nuw i8, ptr %.030, i64 1
  %118 = getelementptr inbounds nuw i8, ptr %1, i64 16
  %119 = tail call fastcc ptr @getoffset(ptr noundef nonnull %117, ptr noundef %118)
  br label %getnum.exit40.thread

120:                                              ; preds = %getnum.exit
  %121 = getelementptr inbounds nuw i8, ptr %1, i64 16
  store i32 7200, ptr %121, align 4
  br label %getnum.exit40.thread

getnum.exit40.thread:                             ; preds = %.preheader.i36, %.preheader.i42, %.preheader.i48, %.preheader.i, %.preheader.i54, %111, %94, %87, %69, %22, %4, %65, %47, %43, %25, %116, %120, %90, %67, %45
  %.0 = phi ptr [ null, %45 ], [ null, %67 ], [ null, %90 ], [ %119, %116 ], [ %.030, %120 ], [ null, %25 ], [ null, %43 ], [ null, %47 ], [ null, %65 ], [ null, %4 ], [ null, %22 ], [ null, %69 ], [ null, %87 ], [ null, %94 ], [ null, %111 ], [ null, %.preheader.i54 ], [ null, %.preheader.i ], [ null, %.preheader.i48 ], [ null, %.preheader.i42 ], [ null, %.preheader.i36 ]
  ret ptr %.0
}